target datalayout = "e-m:e-p270:32:32-p271:32:32-p272:64:64-i64:64-i128:128-f80:128-n8:16:32:64-S128"
target triple = "x86_64-pc-linux-gnu"

%"class.algebraic_numbers::manager" = type <{ ptr, ptr, i8, [7 x i8] }>
%class._scoped_numeral.14 = type { ptr, %"class.algebraic_numbers::anum" }
%"class.algebraic_numbers::anum" = type { ptr }

; Function Attrs: mustprogress nounwind uwtable
define linkonce_odr hidden void @_ZN17algebraic_numbers4anumC2Ev(ptr noundef nonnull align 8 dereferenceable(8) %0) unnamed_addr #5 comdat align 2 {
  %2 = alloca ptr, align 8
  store ptr %0, ptr %2, align 8, !tbaa !65
  %3 = load ptr, ptr %2, align 8
  %4 = getelementptr inbounds nuw %"class.algebraic_numbers::anum", ptr %3, i32 0, i32 0
  store ptr null, ptr %4, align 8, !tbaa !124
  ret void
}

; Function Attrs: mustprogress uwtable
define hidden void @_ZN17algebraic_numbers7manager3addERKNS_4anumES3_RS1_(ptr noundef nonnull align 8 dereferenceable(17) %0, ptr noundef nonnull align 8 dereferenceable(8) %1, ptr noundef nonnull align 8 dereferenceable(8) %2, ptr noundef nonnull align 8 dereferenceable(8) %3) #4 align 2 {
  %5 = alloca ptr, align 8
  %6 = alloca ptr, align 8
  %7 = alloca ptr, align 8
  %8 = alloca ptr, align 8
  store ptr %0, ptr %5, align 8, !tbaa !8
  store ptr %1, ptr %6, align 8, !tbaa !65
  store ptr %2, ptr %7, align 8, !tbaa !65
  store ptr %3, ptr %8, align 8, !tbaa !65
  %9 = load ptr, ptr %5, align 8
  %10 = getelementptr inbounds nuw %"class.algebraic_numbers::manager", ptr %9, i32 0, i32 0
  %11 = load ptr, ptr %10, align 8, !tbaa !23
  %12 = load ptr, ptr %6, align 8, !tbaa !65
  %13 = load ptr, ptr %7, align 8, !tbaa !65
  %14 = load ptr, ptr %8, align 8, !tbaa !65
  call void @_ZN17algebraic_numbers7manager3imp3addERNS_4anumES3_S3_(ptr noundef nonnull align 8 dereferenceable(936) %11, ptr noundef nonnull align 8 dereferenceable(8) %12, ptr noundef nonnull align 8 dereferenceable(8) %13, ptr noundef nonnull align 8 dereferenceable(8) %14)
  ret void
}

; Function Attrs: mustprogress nounwind uwtable
define linkonce_odr hidden noundef nonnull align 8 dereferenceable(8) ptr @_ZN15_scoped_numeralIN17algebraic_numbers7managerEEcvRNS0_4anumEEv(ptr noundef nonnull align 8 dereferenceable(16) %0) #5 comdat align 2 {
  %2 = alloca ptr, align 8
  store ptr %0, ptr %2, align 8, !tbaa !114
  %3 = load ptr, ptr %2, align 8
  %4 = getelementptr inbounds nuw %class._scoped_numeral.14, ptr %3, i32 0, i32 1
  ret ptr %4
}

; Function Attrs: mustprogress uwtable
define linkonce_odr hidden void @_ZN15_scoped_numeralIN17algebraic_numbers7managerEEC2ERS1_(ptr noundef nonnull align 8 dereferenceable(16) %0, ptr noundef nonnull align 8 dereferenceable(17) %1) unnamed_addr #4 comdat align 2 {
  %3 = alloca ptr, align 8
  %4 = alloca ptr, align 8
  store ptr %0, ptr %3, align 8, !tbaa !114
  store ptr %1, ptr %4, align 8, !tbaa !8
  %5 = load ptr, ptr %3, align 8
  %6 = getelementptr inbounds nuw %class._scoped_numeral.14, ptr %5, i32 0, i32 0
  %7 = load ptr, ptr %4, align 8, !tbaa !8
  store ptr %7, ptr %6, align 8, !tbaa !8
  %8 = getelementptr inbounds nuw %class._scoped_numeral.14, ptr %5, i32 0, i32 1
  call void @_ZN17algebraic_numbers4anumC2Ev(ptr noundef nonnull align 8 dereferenceable(8) %8)
  ret void
}

; Function Attrs: mustprogress uwtable
define hidden void @_ZN17algebraic_numbers7manager3addERKNS_4anumERK3mpzRS1_(ptr noundef nonnull align 8 dereferenceable(17) %0, ptr noundef nonnull align 8 dereferenceable(8) %1, ptr noundef nonnull align 8 dereferenceable(16) %2, ptr noundef nonnull align 8 dereferenceable(8) %3) #4 align 2 personality ptr @__gxx_personality_v0 {
  %5 = alloca ptr, align 8
  %6 = alloca ptr, align 8
  %7 = alloca ptr, align 8
  %8 = alloca ptr, align 8
  %9 = alloca %class._scoped_numeral.14, align 8
  %10 = alloca ptr, align 8
  %11 = alloca i32, align 4
  store ptr %0, ptr %5, align 8, !tbaa !8
  store ptr %1, ptr %6, align 8, !tbaa !65
  store ptr %2, ptr %7, align 8, !tbaa !73
  store ptr %3, ptr %8, align 8, !tbaa !65
  %12 = load ptr, ptr %5, align 8
  call void @llvm.lifetime.start.p0(i64 16, ptr %9) #3
  call void @_ZN15_scoped_numeralIN17algebraic_numbers7managerEEC2ERS1_(ptr noundef nonnull align 8 dereferenceable(16) %9, ptr noundef nonnull align 8 dereferenceable(17) %12)
  %13 = invoke noundef nonnull align 8 dereferenceable(8) ptr @_ZN15_scoped_numeralIN17algebraic_numbers7managerEEcvRNS0_4anumEEv(ptr noundef nonnull align 8 dereferenceable(16) %9)
          to label %14 unwind label %22

14:                                               ; preds = %4
  %15 = load ptr, ptr %7, align 8, !tbaa !73
  invoke void @_ZN17algebraic_numbers7manager3setERNS_4anumERK3mpz(ptr noundef nonnull align 8 dereferenceable(17) %12, ptr noundef nonnull align 8 dereferenceable(8) %13, ptr noundef nonnull align 8 dereferenceable(16) %15)
          to label %16 unwind label %22

16:                                               ; preds = %14
  %17 = load ptr, ptr %6, align 8, !tbaa !65
  %18 = invoke noundef nonnull align 8 dereferenceable(8) ptr @_ZN15_scoped_numeralIN17algebraic_numbers7managerEEcvRNS0_4anumEEv(ptr noundef nonnull align 8 dereferenceable(16) %9)
          to label %19 unwind label %22

19:                                               ; preds = %16
  %20 = load ptr, ptr %8, align 8, !tbaa !65
  invoke void @_ZN17algebraic_numbers7manager3addERKNS_4anumES3_RS1_(ptr noundef nonnull align 8 dereferenceable(17) %12, ptr noundef nonnull align 8 dereferenceable(8) %17, ptr noundef nonnull align 8 dereferenceable(8) %18, ptr noundef nonnull align 8 dereferenceable(8) %20)
          to label %21 unwind label %22

21:                                               ; preds = %19
  call void @_ZN15_scoped_numeralIN17algebraic_numbers7managerEED2Ev(ptr noundef nonnull align 8 dereferenceable(16) %9) #3
  call void @llvm.lifetime.end.p0(i64 16, ptr %9) #3
  ret void

22:                                               ; preds = %19, %16, %14, %4
  %23 = landingpad { ptr, i32 }
          cleanup
  %24 = extractvalue { ptr, i32 } %23, 0
  store ptr %24, ptr %10, align 8
  %25 = extractvalue { ptr, i32 } %23, 1
  store i32 %25, ptr %11, align 4
  call void @_ZN15_scoped_numeralIN17algebraic_numbers7managerEED2Ev(ptr noundef nonnull align 8 dereferenceable(16) %9) #3
  call void @llvm.lifetime.end.p0(i64 16, ptr %9) #3
  br label %26

26:                                               ; preds = %22
  %27 = load ptr, ptr %10, align 8
  %28 = load i32, ptr %11, align 4
  %29 = insertvalue { ptr, i32 } poison, ptr %27, 0
  %30 = insertvalue { ptr, i32 } %29, i32 %28, 1
  resume { ptr, i32 } %30
}