; Function Attrs: mustprogress uwtable
define hidden void @_ZN17algebraic_numbers7manager3addERKNS_4anumERK3mpzRS1_(ptr noundef nonnull align 8 dereferenceable(17) %0, ptr noundef nonnull align 8 dereferenceable(8) %1, ptr noundef nonnull align 8 dereferenceable(16) %2, ptr noundef nonnull align 8 dereferenceable(8) %3) local_unnamed_addr #3 align 2 personality ptr @__gxx_personality_v0 {
  %5 = alloca %class._scoped_numeral.14, align 8
  call void @llvm.lifetime.start.p0(i64 16, ptr nonnull %5) #29
  store ptr %0, ptr %5, align 8, !tbaa !15
  %6 = getelementptr inbounds nuw i8, ptr %5, i64 8
  store ptr null, ptr %6, align 8, !tbaa !66
  invoke void @_ZN17algebraic_numbers7manager3setERNS_4anumERK3mpz(ptr noundef nonnull align 8 dereferenceable(17) %0, ptr noundef nonnull align 8 dereferenceable(8) %6, ptr noundef nonnull align 8 dereferenceable(16) %2)
          to label %7 unwind label %29

7:                                                ; preds = %4
  %8 = load ptr, ptr %0, align 8, !tbaa !12
  invoke void @_ZN17algebraic_numbers7manager3imp3addERNS_4anumES3_S3_(ptr noundef nonnull align 8 dereferenceable(936) %8, ptr noundef nonnull align 8 dereferenceable(8) %1, ptr noundef nonnull align 8 dereferenceable(8) %6, ptr noundef nonnull align 8 dereferenceable(8) %3)
          to label %_ZN17algebraic_numbers7manager3addERKNS_4anumES3_RS1_.exit unwind label %29

_ZN17algebraic_numbers7manager3addERKNS_4anumES3_RS1_.exit: ; preds = %7
  %9 = load ptr, ptr %5, align 8, !tbaa !121
  %10 = load ptr, ptr %9, align 8, !tbaa !12
  %11 = load ptr, ptr %6, align 8, !tbaa !66
  %12 = icmp eq ptr %11, null
  br i1 %12, label %_ZN15_scoped_numeralIN17algebraic_numbers7managerEED2Ev.exit, label %13

13:                                               ; preds = %_ZN17algebraic_numbers7manager3addERKNS_4anumES3_RS1_.exit
  %14 = ptrtoint ptr %11 to i64
  %15 = and i64 %14, 7
  %16 = icmp eq i64 %15, 0
  br i1 %16, label %17, label %23

17:                                               ; preds = %13
  %18 = getelementptr inbounds nuw i8, ptr %10, i64 24
  %19 = load ptr, ptr %18, align 8, !tbaa !65
  invoke void @_ZN11mpz_managerILb0EE3delEPS0_R3mpz(ptr noundef nonnull align 8 dereferenceable(728) %19, ptr noundef nonnull align 8 dereferenceable(32) %11)
          to label %.noexc.i unwind label %26

.noexc.i:                                         ; preds = %17
  %20 = getelementptr inbounds nuw i8, ptr %11, i64 16
  invoke void @_ZN11mpz_managerILb0EE3delEPS0_R3mpz(ptr noundef nonnull align 8 dereferenceable(728) %19, ptr noundef nonnull align 8 dereferenceable(16) %20)
          to label %.noexc1.i unwind label %26

.noexc1.i:                                        ; preds = %.noexc.i
  %21 = getelementptr inbounds nuw i8, ptr %10, i64 16
  %22 = load ptr, ptr %21, align 8, !tbaa !68
  invoke void @_ZN22small_object_allocator10deallocateEmPv(ptr noundef nonnull align 8 dereferenceable(520) %22, i64 noundef 32, ptr noundef nonnull %11)
          to label %_ZN15_scoped_numeralIN17algebraic_numbers7managerEED2Ev.exit unwind label %26

23:                                               ; preds = %13
  %24 = and i64 %14, -8
  %25 = inttoptr i64 %24 to ptr
  invoke void @_ZN17algebraic_numbers7manager3imp3delEPNS_14algebraic_cellE(ptr noundef nonnull align 8 dereferenceable(936) %10, ptr noundef %25)
          to label %_ZN15_scoped_numeralIN17algebraic_numbers7managerEED2Ev.exit unwind label %26

26:                                               ; preds = %23, %.noexc1.i, %.noexc.i, %17
  %27 = landingpad { ptr, i32 }
          catch ptr null
  %28 = extractvalue { ptr, i32 } %27, 0
  call void @__clang_call_terminate(ptr %28) #30
  unreachable

_ZN15_scoped_numeralIN17algebraic_numbers7managerEED2Ev.exit: ; preds = %.noexc1.i, %23, %_ZN17algebraic_numbers7manager3addERKNS_4anumES3_RS1_.exit
  call void @llvm.lifetime.end.p0(i64 16, ptr nonnull %5) #29
  ret void

29:                                               ; preds = %7, %4
  %30 = landingpad { ptr, i32 }
          cleanup
  call void @_ZN15_scoped_numeralIN17algebraic_numbers7managerEED2Ev(ptr noundef nonnull align 8 dereferenceable(16) %5) #29
  call void @llvm.lifetime.end.p0(i64 16, ptr nonnull %5) #29
  resume { ptr, i32 } %30
}